c__builtin__
set
p0
((lp1
(ipomdpy.solvers.alpha_vector
AlphaVector
p2
(dp3
S'action'
p4
I0
sS'v'
p5
cnumpy.core.multiarray
_reconstruct
p6
(cnumpy
ndarray
p7
(I0
tp8
S'b'
p9
tp10
Rp11
(I1
(I2
tp12
cnumpy
dtype
p13
(S'f8'
p14
I0
I1
tp15
Rp16
(I3
S'<'
p17
NNNI-1
I-1
I0
tp18
bI00
S'ffffff\xee\xbf\xd3Mb\x10Xy\xfb\xbf'
p19
tp20
bsba(ipomdpy.solvers.alpha_vector
AlphaVector
p21
(dp22
g4
I2
sg5
g6
(g7
(I0
tp23
g9
tp24
Rp25
(I1
(I2
tp26
g16
I00
S"33333\x83'@33333\x837\xc0"
p27
tp28
bsba(ipomdpy.solvers.alpha_vector
AlphaVector
p29
(dp30
g4
I0
sg5
g6
(g7
(I0
tp31
g9
tp32
Rp33
(I1
(I2
tp34
g16
I00
S'ffffff\xee\xbf\xc1\xf5(\\\x8f\xe2\x1a@'
p35
tp36
bsba(ipomdpy.solvers.alpha_vector
AlphaVector
p37
(dp38
g4
I2
sg5
g6
(g7
(I0
tp39
g9
tp40
Rp41
(I1
(I2
tp42
g16
I00
S'\x14\xaeG\xe1z\x8c"@\xf6(\\\x8f\xc293\xc0'
p43
tp44
bsba(ipomdpy.solvers.alpha_vector
AlphaVector
p45
(dp46
g4
I1
sg5
g6
(g7
(I0
tp47
g9
tp48
Rp49
(I1
(I2
tp50
g16
I00
S'fffff\xbe0\xc033333\xf3\x13@'
p51
tp52
bsba(ipomdpy.solvers.alpha_vector
AlphaVector
p53
(dp54
g4
I2
sg5
g6
(g7
(I0
tp55
g9
tp56
Rp57
(I1
(I2
tp58
g16
I00
S'\x00\x00\x00\x00\x00\x00#@\x00\x00\x00\x00\x00\x003\xc0'
p59
tp60
bsba(ipomdpy.solvers.alpha_vector
AlphaVector
p61
(dp62
g4
I2
sg5
g6
(g7
(I0
tp63
g9
tp64
Rp65
(I1
(I2
tp66
g16
I00
S'33333\xf3\x13@fffff\xbe0\xc0'
p67
tp68
bsba(ipomdpy.solvers.alpha_vector
AlphaVector
p69
(dp70
g4
I1
sg5
g6
(g7
(I0
tp71
g9
tp72
Rp73
(I1
(I2
tp74
g16
I00
S'\xf6(\\\x8f\xc293\xc0\x14\xaeG\xe1z\x8c"@'
p75
tp76
bsba(ipomdpy.solvers.alpha_vector
AlphaVector
p77
(dp78
g4
I1
sg5
g6
(g7
(I0
tp79
g9
tp80
Rp81
(I1
(I2
tp82
g16
I00
S"33333\x837\xc033333\x83'@"
p83
tp84
bsba(ipomdpy.solvers.alpha_vector
AlphaVector
p85
(dp86
g4
I0
sg5
g6
(g7
(I0
tp87
g9
tp88
Rp89
(I1
(I2
tp90
g16
I00
S'ffffff\xee\xbfz\x14\xaeG\xe1J0\xc0'
p91
tp92
bsba(ipomdpy.solvers.alpha_vector
AlphaVector
p93
(dp94
g4
I1
sg5
g6
(g7
(I0
tp95
g9
tp96
Rp97
(I1
(I2
tp98
g16
I00
S'\x00\x00\x00\x00\x00\x003\xc0\x00\x00\x00\x00\x00\x00#@'
p99
tp100
bsbatp101
Rp102
.