c__builtin__
set
p0
((lp1
(ipomdpy.solvers.alpha_vector
AlphaVector
p2
(dp3
S'action'
p4
I1
sS'v'
p5
cnumpy.core.multiarray
_reconstruct
p6
(cnumpy
ndarray
p7
(I0
tp8
S'b'
p9
tp10
Rp11
(I1
(I2
tp12
cnumpy
dtype
p13
(S'f8'
p14
I0
I1
tp15
Rp16
(I3
S'<'
p17
NNNI-1
I-1
I0
tp18
bI00
S'\xee|?5\x1e\xcc0\xc0\x0e\x1c\xc7\x0b\xfe\x00\x16@'
p19
tp20
bsba(ipomdpy.solvers.alpha_vector
AlphaVector
p21
(dp22
g4
I1
sg5
g6
(g7
(I0
tp23
g9
tp24
Rp25
(I1
(I2
tp26
g16
I00
S'\x0c\xb4V\x7f\x1d%2\xc0#\xabRA\xc7\xc1\x16@'
p27
tp28
bsba(ipomdpy.solvers.alpha_vector
AlphaVector
p29
(dp30
g4
I1
sg5
g6
(g7
(I0
tp31
g9
tp32
Rp33
(I1
(I2
tp34
g16
I00
S'\xbbI\x0c\x02\xeb\x907\xc0\x90*\x0f\xbcW-%@'
p35
tp36
bsba(ipomdpy.solvers.alpha_vector
AlphaVector
p37
(dp38
g4
I1
sg5
g6
(g7
(I0
tp39
g9
tp40
Rp41
(I1
(I2
tp42
g16
I00
S'\xf6(\\\x8f\xc2\xd01\xc0R\xb8\x1e\x85\xeb\x17\x16@'
p43
tp44
bsba(ipomdpy.solvers.alpha_vector
AlphaVector
p45
(dp46
g4
I2
sg5
g6
(g7
(I0
tp47
g9
tp48
Rp49
(I1
(I2
tp50
g16
I00
S'g~5\x87\x9c\xda$@vo\xb9\xfb \xd26\xc0'
p51
tp52
bsba(ipomdpy.solvers.alpha_vector
AlphaVector
p53
(dp54
g4
I2
sg5
g6
(g7
(I0
tp55
g9
tp56
Rp57
(I1
(I2
tp58
g16
I00
S'R\xb8\x1e\x85\xeb\x17\x16@\xf6(\\\x8f\xc2\xd01\xc0'
p59
tp60
bsba(ipomdpy.solvers.alpha_vector
AlphaVector
p61
(dp62
g4
I1
sg5
g6
(g7
(I0
tp63
g9
tp64
Rp65
(I1
(I2
tp66
g16
I00
S'0\x0cX6\n\x860\xc0\xb8dL\x8d\xa4Q\x10@'
p67
tp68
bsba(ipomdpy.solvers.alpha_vector
AlphaVector
p69
(dp70
g4
I2
sg5
g6
(g7
(I0
tp71
g9
tp72
Rp73
(I1
(I2
tp74
g16
I00
S'\xa5\xd5\x90\x18k\xb0(@\xfcM(\x1c%\xcd8\xc0'
p75
tp76
bsba(ipomdpy.solvers.alpha_vector
AlphaVector
p77
(dp78
g4
I2
sg5
g6
(g7
(I0
tp79
g9
tp80
Rp81
(I1
(I2
tp82
g16
I00
S'\x8a\x1fc\xee\xc4\xb7(@u\xe0\x9c\x91\xfb\xce8\xc0'
p83
tp84
bsba(ipomdpy.solvers.alpha_vector
AlphaVector
p85
(dp86
g4
I0
sg5
g6
(g7
(I0
tp87
g9
tp88
Rp89
(I1
(I2
tp90
g16
I00
S'ffffff\xee\xbf\xa6\xe97Gm\xe7!@'
p91
tp92
bsba(ipomdpy.solvers.alpha_vector
AlphaVector
p93
(dp94
g4
I2
sg5
g6
(g7
(I0
tp95
g9
tp96
Rp97
(I1
(I2
tp98
g16
I00
S'\x1bG\xacE,\xd5(@\xd0\xd3\xf4\xdah\xcf8\xc0'
p99
tp100
bsba(ipomdpy.solvers.alpha_vector
AlphaVector
p101
(dp102
g4
I2
sg5
g6
(g7
(I0
tp103
g9
tp104
Rp105
(I1
(I2
tp106
g16
I00
S'\xc6\xec\xd6qT\xea(@\xb8}\x1d\x0e\xa4\xea8\xc0'
p107
tp108
bsba(ipomdpy.solvers.alpha_vector
AlphaVector
p109
(dp110
g4
I1
sg5
g6
(g7
(I0
tp111
g9
tp112
Rp113
(I1
(I2
tp114
g16
I00
S'P\x1e\x16j\xd1\x988\xc0%\x8d\xd1:\xa9\xc3(@'
p115
tp116
bsba(ipomdpy.solvers.alpha_vector
AlphaVector
p117
(dp118
g4
I2
sg5
g6
(g7
(I0
tp119
g9
tp120
Rp121
(I1
(I2
tp122
g16
I00
S'\xaa\x0ed\xaa\xf3\xea(@\xaa\x0ed\xaa\xf3\xea8\xc0'
p123
tp124
bsba(ipomdpy.solvers.alpha_vector
AlphaVector
p125
(dp126
g4
I2
sg5
g6
(g7
(I0
tp127
g9
tp128
Rp129
(I1
(I2
tp130
g16
I00
S"$\x06\x81\x95\xc3g'@\xfc8\x0e}\xc0\xff6\xc0"
p131
tp132
bsba(ipomdpy.solvers.alpha_vector
AlphaVector
p133
(dp134
g4
I2
sg5
g6
(g7
(I0
tp135
g9
tp136
Rp137
(I1
(I2
tp138
g16
I00
S'\xc4 \xb0r\xb8\xd6(@\xc4 \xb0r\xb8\xd68\xc0'
p139
tp140
bsba(ipomdpy.solvers.alpha_vector
AlphaVector
p141
(dp142
g4
I2
sg5
g6
(g7
(I0
tp143
g9
tp144
Rp145
(I1
(I2
tp146
g16
I00
S"\xf1\xc3\xb2\xbf\xc6\xea'@Ni\x0b5\xddj8\xc0"
p147
tp148
bsba(ipomdpy.solvers.alpha_vector
AlphaVector
p149
(dp150
g4
I0
sg5
g6
(g7
(I0
tp151
g9
tp152
Rp153
(I1
(I2
tp154
g16
I00
S'ffffff\xee\xbf\x1do\xf2k\xc34"@'
p155
tp156
bsba(ipomdpy.solvers.alpha_vector
AlphaVector
p157
(dp158
g4
I0
sg5
g6
(g7
(I0
tp159
g9
tp160
Rp161
(I1
(I2
tp162
g16
I00
S'ffffff\xee\xbf\xfc)\xd9\xad\x1b1"@'
p163
tp164
bsba(ipomdpy.solvers.alpha_vector
AlphaVector
p165
(dp166
g4
I2
sg5
g6
(g7
(I0
tp167
g9
tp168
Rp169
(I1
(I2
tp170
g16
I00
S"33333\x83'@33333\x837\xc0"
p171
tp172
bsba(ipomdpy.solvers.alpha_vector
AlphaVector
p173
(dp174
g4
I1
sg5
g6
(g7
(I0
tp175
g9
tp176
Rp177
(I1
(I2
tp178
g16
I00
S'\xc2\xf5(\\\x8f\x958\xc0\xc2\xf5(\\\x8f\x95(@'
p179
tp180
bsba(ipomdpy.solvers.alpha_vector
AlphaVector
p181
(dp182
g4
I0
sg5
g6
(g7
(I0
tp183
g9
tp184
Rp185
(I1
(I2
tp186
g16
I00
S'ffffff\xee\xbfb\xfao6\xbb7"@'
p187
tp188
bsba(ipomdpy.solvers.alpha_vector
AlphaVector
p189
(dp190
g4
I2
sg5
g6
(g7
(I0
tp191
g9
tp192
Rp193
(I1
(I2
tp194
g16
I00
S'D|\xd1D\xb2\xb3$@x\xc5\x9a\xf7R\xcf6\xc0'
p195
tp196
bsba(ipomdpy.solvers.alpha_vector
AlphaVector
p197
(dp198
g4
I2
sg5
g6
(g7
(I0
tp199
g9
tp200
Rp201
(I1
(I2
tp202
g16
I00
S']\x19T\xfb\xf5\xcc\x0c@\x1e\xc5\x14\x0c\x9a\x0b0\xc0'
p203
tp204
bsba(ipomdpy.solvers.alpha_vector
AlphaVector
p205
(dp206
g4
I2
sg5
g6
(g7
(I0
tp207
g9
tp208
Rp209
(I1
(I2
tp210
g16
I00
S'\xe6\xb0\xfb(\xac\xae(@\xcc\x04C`\xb5\xcc8\xc0'
p211
tp212
bsba(ipomdpy.solvers.alpha_vector
AlphaVector
p213
(dp214
g4
I2
sg5
g6
(g7
(I0
tp215
g9
tp216
Rp217
(I1
(I2
tp218
g16
I00
S"\xdf/f\xe50\xeb'@JDx\xbe\xf7j8\xc0"
p219
tp220
bsba(ipomdpy.solvers.alpha_vector
AlphaVector
p221
(dp222
g4
I2
sg5
g6
(g7
(I0
tp223
g9
tp224
Rp225
(I1
(I2
tp226
g16
I00
S'}\xeaX\x1d\xd4\xe5(@@h\xb1!\x8b\xe48\xc0'
p227
tp228
bsba(ipomdpy.solvers.alpha_vector
AlphaVector
p229
(dp230
g4
I2
sg5
g6
(g7
(I0
tp231
g9
tp232
Rp233
(I1
(I2
tp234
g16
I00
S"\x9f\xe7O\x93\xeb\xf3'@\xc25R\x16\xf1k8\xc0"
p235
tp236
bsba(ipomdpy.solvers.alpha_vector
AlphaVector
p237
(dp238
g4
I1
sg5
g6
(g7
(I0
tp239
g9
tp240
Rp241
(I1
(I2
tp242
g16
I00
S'\x99\r2\x89~\xd78\xc0\x85\x91^d\xab\xe1(@'
p243
tp244
bsba(ipomdpy.solvers.alpha_vector
AlphaVector
p245
(dp246
g4
I1
sg5
g6
(g7
(I0
tp247
g9
tp248
Rp249
(I1
(I2
tp250
g16
I00
S'\xd8\x80#L\xea\xe98\xc0*\xefB:}\xea(@'
p251
tp252
bsba(ipomdpy.solvers.alpha_vector
AlphaVector
p253
(dp254
g4
I2
sg5
g6
(g7
(I0
tp255
g9
tp256
Rp257
(I1
(I2
tp258
g16
I00
S'\xf8DH\x03B\xae(@\xd1)\xd6\xd6\x9a\xcc8\xc0'
p259
tp260
bsba(ipomdpy.solvers.alpha_vector
AlphaVector
p261
(dp262
g4
I2
sg5
g6
(g7
(I0
tp263
g9
tp264
Rp265
(I1
(I2
tp266
g16
I00
S'\xebQ\xb8\x1e\x85S\x0f@\x1f\x85\xebQ850\xc0'
p267
tp268
bsba(ipomdpy.solvers.alpha_vector
AlphaVector
p269
(dp270
g4
I2
sg5
g6
(g7
(I0
tp271
g9
tp272
Rp273
(I1
(I2
tp274
g16
I00
S'\x9c`\xc9\xbfT\xb0(@\x90\xb9\xe6\x0e\xd6\xcc8\xc0'
p275
tp276
bsba(ipomdpy.solvers.alpha_vector
AlphaVector
p277
(dp278
g4
I2
sg5
g6
(g7
(I0
tp279
g9
tp280
Rp281
(I1
(I2
tp282
g16
I00
S'\x15\xc6\x16\x02\xb1\x11(@M\x13*9\xabm8\xc0'
p283
tp284
bsba(ipomdpy.solvers.alpha_vector
AlphaVector
p285
(dp286
g4
I2
sg5
g6
(g7
(I0
tp287
g9
tp288
Rp289
(I1
(I2
tp290
g16
I00
S'\xc2\xf5(\\\x8f\x95(@\xc2\xf5(\\\x8f\x958\xc0'
p291
tp292
bsba(ipomdpy.solvers.alpha_vector
AlphaVector
p293
(dp294
g4
I0
sg5
g6
(g7
(I0
tp295
g9
tp296
Rp297
(I1
(I2
tp298
g16
I00
S'ffffff\xee\xbf_\xdc\xd65\x813"@'
p299
tp300
bsba(ipomdpy.solvers.alpha_vector
AlphaVector
p301
(dp302
g4
I2
sg5
g6
(g7
(I0
tp303
g9
tp304
Rp305
(I1
(I2
tp306
g16
I00
S"\x83\x9e\xcd\xaaI\xf4'@\xf2\x1f\xd2\xef=m8\xc0"
p307
tp308
bsba(ipomdpy.solvers.alpha_vector
AlphaVector
p309
(dp310
g4
I2
sg5
g6
(g7
(I0
tp311
g9
tp312
Rp313
(I1
(I2
tp314
g16
I00
S'}W\x04_\xd8\xde(@\xe8\x0eb\xbf[\xe48\xc0'
p315
tp316
bsba(ipomdpy.solvers.alpha_vector
AlphaVector
p317
(dp318
g4
I2
sg5
g6
(g7
(I0
tp319
g9
tp320
Rp321
(I1
(I2
tp322
g16
I00
S'\xf1\x0c\x1aZ\xdb\xb5$@\xa3\xe9\xec<\xdd\xcf6\xc0'
p323
tp324
bsba(ipomdpy.solvers.alpha_vector
AlphaVector
p325
(dp326
g4
I2
sg5
g6
(g7
(I0
tp327
g9
tp328
Rp329
(I1
(I2
tp330
g16
I00
S"$\x06\x81\x95\xc3g'@\x8fM\xf2\x9b\x96\x017\xc0"
p331
tp332
bsba(ipomdpy.solvers.alpha_vector
AlphaVector
p333
(dp334
g4
I2
sg5
g6
(g7
(I0
tp335
g9
tp336
Rp337
(I1
(I2
tp338
g16
I00
S'4\x93o\xb6\x0bD\r@\xa9\xa2\xec.T\r0\xc0'
p339
tp340
bsba(ipomdpy.solvers.alpha_vector
AlphaVector
p341
(dp342
g4
I2
sg5
g6
(g7
(I0
tp343
g9
tp344
Rp345
(I1
(I2
tp346
g16
I00
S'\xf0\x9fn\x18\xd7\xbc$@\xfaB<\x9f\x0c\xd06\xc0'
p347
tp348
bsba(ipomdpy.solvers.alpha_vector
AlphaVector
p349
(dp350
g4
I2
sg5
g6
(g7
(I0
tp351
g9
tp352
Rp353
(I1
(I2
tp354
g16
I00
S'\x16\xd9\xce\xf7S\xbc\x13@/lA\xb0\xf3:0\xc0'
p355
tp356
bsba(ipomdpy.solvers.alpha_vector
AlphaVector
p357
(dp358
g4
I2
sg5
g6
(g7
(I0
tp359
g9
tp360
Rp361
(I1
(I2
tp362
g16
I00
S'\x16\xd9\xce\xf7S\xbc\x13@ \xbb\xe6\xe9M;0\xc0'
p363
tp364
bsba(ipomdpy.solvers.alpha_vector
AlphaVector
p365
(dp366
g4
I2
sg5
g6
(g7
(I0
tp367
g9
tp368
Rp369
(I1
(I2
tp370
g16
I00
S'\xb4X\x8a\x97\xbe\xea(@\xb4X\x8a\x97\xbe\xea8\xc0'
p371
tp372
bsba(ipomdpy.solvers.alpha_vector
AlphaVector
p373
(dp374
g4
I2
sg5
g6
(g7
(I0
tp375
g9
tp376
Rp377
(I1
(I2
tp378
g16
I00
S'\x14\xaeG\xe1z\x8c"@\x0cT\xc6?D\xde0\xc0'
p379
tp380
bsba(ipomdpy.solvers.alpha_vector
AlphaVector
p381
(dp382
g4
I2
sg5
g6
(g7
(I0
tp383
g9
tp384
Rp385
(I1
(I2
tp386
g16
I00
S'b:\xadC\x0b\xaa\x0c@\xa6\xd3:\xb4\xa0\n0\xc0'
p387
tp388
bsba(ipomdpy.solvers.alpha_vector
AlphaVector
p389
(dp390
g4
I2
sg5
g6
(g7
(I0
tp391
g9
tp392
Rp393
(I1
(I2
tp394
g16
I00
S'\x14\xaeG\xe1z\x8c"@4i.\xcb\x88\xd60\xc0'
p395
tp396
bsba(ipomdpy.solvers.alpha_vector
AlphaVector
p397
(dp398
g4
I2
sg5
g6
(g7
(I0
tp399
g9
tp400
Rp401
(I1
(I2
tp402
g16
I00
S'33333\xf3\x13@fffff\xbe0\xc0'
p403
tp404
bsba(ipomdpy.solvers.alpha_vector
AlphaVector
p405
(dp406
g4
I2
sg5
g6
(g7
(I0
tp407
g9
tp408
Rp409
(I1
(I2
tp410
g16
I00
S'\xf0\x9fn\x18\xd7\xbc$@\xeb\x91\xe1\xd8f\xd06\xc0'
p411
tp412
bsba(ipomdpy.solvers.alpha_vector
AlphaVector
p413
(dp414
g4
I2
sg5
g6
(g7
(I0
tp415
g9
tp416
Rp417
(I1
(I2
tp418
g16
I00
S'\xa4h\xe5\xd6f\xb7(@T\xa7w~T\xcd8\xc0'
p419
tp420
bsba(ipomdpy.solvers.alpha_vector
AlphaVector
p421
(dp422
g4
I2
sg5
g6
(g7
(I0
tp423
g9
tp424
Rp425
(I1
(I2
tp426
g16
I00
S"\x9f\xe7O\x93\xeb\xf3'@\xd2\xe6\xac\xdc\x96k8\xc0"
p427
tp428
bsba(ipomdpy.solvers.alpha_vector
AlphaVector
p429
(dp430
g4
I1
sg5
g6
(g7
(I0
tp431
g9
tp432
Rp433
(I1
(I2
tp434
g16
I00
S'\xb4X\x8a\x97\xbe\xea8\xc0\xb4X\x8a\x97\xbe\xea(@'
p435
tp436
bsba(ipomdpy.solvers.alpha_vector
AlphaVector
p437
(dp438
g4
I2
sg5
g6
(g7
(I0
tp439
g9
tp440
Rp441
(I1
(I2
tp442
g16
I00
S'\x00\x00\x00\x00\x00\x00#@\x00\x00\x00\x00\x00\x003\xc0'
p443
tp444
bsba(ipomdpy.solvers.alpha_vector
AlphaVector
p445
(dp446
g4
I2
sg5
g6
(g7
(I0
tp447
g9
tp448
Rp449
(I1
(I2
tp450
g16
I00
S'\xdc\xf9~j<J\r@\x9e\xef\xa7\xc6\xa3\x140\xc0'
p451
tp452
bsba(ipomdpy.solvers.alpha_vector
AlphaVector
p453
(dp454
g4
I2
sg5
g6
(g7
(I0
tp455
g9
tp456
Rp457
(I1
(I2
tp458
g16
I00
S'\x14\xaeG\xe1z^%@\xecQ\xb8\x1e\x05\xfa6\xc0'
p459
tp460
bsba(ipomdpy.solvers.alpha_vector
AlphaVector
p461
(dp462
g4
I2
sg5
g6
(g7
(I0
tp463
g9
tp464
Rp465
(I1
(I2
tp466
g16
I00
S'\xaa\x8a\xdf\xacb\xa8\x0c@\xab\xf8\xcd*\x86\n0\xc0'
p467
tp468
bsba(ipomdpy.solvers.alpha_vector
AlphaVector
p469
(dp470
g4
I2
sg5
g6
(g7
(I0
tp471
g9
tp472
Rp473
(I1
(I2
tp474
g16
I00
S'\x94\xa1*0 \xe8(@$}\xdaco\xe98\xc0'
p475
tp476
bsba(ipomdpy.solvers.alpha_vector
AlphaVector
p477
(dp478
g4
I1
sg5
g6
(g7
(I0
tp479
g9
tp480
Rp481
(I1
(I2
tp482
g16
I00
S'\x99\r2\x89~\xd78\xc0\xad\xba&\xa2W\xe5(@'
p483
tp484
bsba(ipomdpy.solvers.alpha_vector
AlphaVector
p485
(dp486
g4
I2
sg5
g6
(g7
(I0
tp487
g9
tp488
Rp489
(I1
(I2
tp490
g16
I00
S'\xfb\\m\xc5\xf6W%@q\xcc&\x81\xe2\xda6\xc0'
p491
tp492
bsba(ipomdpy.solvers.alpha_vector
AlphaVector
p493
(dp494
g4
I2
sg5
g6
(g7
(I0
tp495
g9
tp496
Rp497
(I1
(I2
tp498
g16
I00
S'\x14\xaeG\xe1z\x8c"@\xd8.m\xb0\x04\xd80\xc0'
p499
tp500
bsba(ipomdpy.solvers.alpha_vector
AlphaVector
p501
(dp502
g4
I1
sg5
g6
(g7
(I0
tp503
g9
tp504
Rp505
(I1
(I2
tp506
g16
I00
S"33333\x837\xc033333\x83'@"
p507
tp508
bsba(ipomdpy.solvers.alpha_vector
AlphaVector
p509
(dp510
g4
I1
sg5
g6
(g7
(I0
tp511
g9
tp512
Rp513
(I1
(I2
tp514
g16
I00
S'\xaa\x0ed\xaa\xf3\xea8\xc0\xaa\x0ed\xaa\xf3\xea(@'
p515
tp516
bsba(ipomdpy.solvers.alpha_vector
AlphaVector
p517
(dp518
g4
I2
sg5
g6
(g7
(I0
tp519
g9
tp520
Rp521
(I1
(I2
tp522
g16
I00
S"\xa0T\xfb\xd4\xef\xec'@z\x8d]zgk8\xc0"
p523
tp524
bsba(ipomdpy.solvers.alpha_vector
AlphaVector
p525
(dp526
g4
I2
sg5
g6
(g7
(I0
tp527
g9
tp528
Rp529
(I1
(I2
tp530
g16
I00
S'\xbd2oo\x19\xdd(@\xb8\xc5|\x03\xec\xe38\xc0'
p531
tp532
bsba(ipomdpy.solvers.alpha_vector
AlphaVector
p533
(dp534
g4
I2
sg5
g6
(g7
(I0
tp535
g9
tp536
Rp537
(I1
(I2
tp538
g16
I00
S"\x95\xdf3|\xd9\xec'@\x0e\xf9\x1bm\x18k8\xc0"
p539
tp540
bsba(ipomdpy.solvers.alpha_vector
AlphaVector
p541
(dp542
g4
I2
sg5
g6
(g7
(I0
tp543
g9
tp544
Rp545
(I1
(I2
tp546
g16
I00
S'a\xa1\xd642\xe6(@a\xa1\xd642\xe68\xc0'
p547
tp548
bsba(ipomdpy.solvers.alpha_vector
AlphaVector
p549
(dp550
g4
I1
sg5
g6
(g7
(I0
tp551
g9
tp552
Rp553
(I1
(I2
tp554
g16
I00
S'\x83QI\x9d\x04\xd41\xc0;\xced\xfbu\x94\x16@'
p555
tp556
bsba(ipomdpy.solvers.alpha_vector
AlphaVector
p557
(dp558
g4
I2
sg5
g6
(g7
(I0
tp559
g9
tp560
Rp561
(I1
(I2
tp562
g16
I00
S's\xe2<\x06\xc2\xde(@}z \xb2\x0c\xe48\xc0'
p563
tp564
bsba(ipomdpy.solvers.alpha_vector
AlphaVector
p565
(dp566
g4
I2
sg5
g6
(g7
(I0
tp567
g9
tp568
Rp569
(I1
(I2
tp570
g16
I00
S'\x10X9\xb4(\xdc$@j\xbct\x93p\xd96\xc0'
p571
tp572
bsba(ipomdpy.solvers.alpha_vector
AlphaVector
p573
(dp574
g4
I1
sg5
g6
(g7
(I0
tp575
g9
tp576
Rp577
(I1
(I2
tp578
g16
I00
S'\xc4 \xb0r\xb8\xd68\xc0\xc4 \xb0r\xb8\xd6(@'
p579
tp580
bsba(ipomdpy.solvers.alpha_vector
AlphaVector
p581
(dp582
g4
I2
sg5
g6
(g7
(I0
tp583
g9
tp584
Rp585
(I1
(I2
tp586
g16
I00
S'\xa65w\n\xb6\xe7(@(\xa2m\xdaT\xe98\xc0'
p587
tp588
bsba(ipomdpy.solvers.alpha_vector
AlphaVector
p589
(dp590
g4
I2
sg5
g6
(g7
(I0
tp591
g9
tp592
Rp593
(I1
(I2
tp594
g16
I00
S'1\xe8\x84j\x1c\xb4$@s\xa0\x07\x81m\xcf6\xc0'
p595
tp596
bsba(ipomdpy.solvers.alpha_vector
AlphaVector
p597
(dp598
g4
I1
sg5
g6
(g7
(I0
tp599
g9
tp600
Rp601
(I1
(I2
tp602
g16
I00
S'S\xc6\xbf\x1f\xdf\xe98\xc0S\xc6\xbf\x1f\xdf\xe9(@'
p603
tp604
bsba(ipomdpy.solvers.alpha_vector
AlphaVector
p605
(dp606
g4
I2
sg5
g6
(g7
(I0
tp607
g9
tp608
Rp609
(I1
(I2
tp610
g16
I00
S'JQ\xf8\xc6\xc8\xe9(@\xe81~\x12\x90\xe98\xc0'
p611
tp612
bsba(ipomdpy.solvers.alpha_vector
AlphaVector
p613
(dp614
g4
I1
sg5
g6
(g7
(I0
tp615
g9
tp616
Rp617
(I1
(I2
tp618
g16
I00
S"\xf6(\\\x8f\xc293\xc0v\xcb\xed\xdc\xa2S'@"
p619
tp620
bsba(ipomdpy.solvers.alpha_vector
AlphaVector
p621
(dp622
g4
I1
sg5
g6
(g7
(I0
tp623
g9
tp624
Rp625
(I1
(I2
tp626
g16
I00
S'\xd4|\x95@a\xe68\xc0\xa3\x13![\x80\xe9(@'
p627
tp628
bsba(ipomdpy.solvers.alpha_vector
AlphaVector
p629
(dp630
g4
I1
sg5
g6
(g7
(I0
tp631
g9
tp632
Rp633
(I1
(I2
tp634
g16
I00
S',e\xc4\xfa$\x0c0\xc0\xbc\xee\x92,Y\xb5\x0c@'
p635
tp636
bsba(ipomdpy.solvers.alpha_vector
AlphaVector
p637
(dp638
g4
I0
sg5
g6
(g7
(I0
tp639
g9
tp640
Rp641
(I1
(I2
tp642
g16
I00
S'ffffff\xee\xbfD\x98\xba\xa9o8"@'
p643
tp644
bsba(ipomdpy.solvers.alpha_vector
AlphaVector
p645
(dp646
g4
I2
sg5
g6
(g7
(I0
tp647
g9
tp648
Rp649
(I1
(I2
tp650
g16
I00
S':\xf9\xe3\x9e\xad\xb0\x0c@k\x88\xdeb\xc1\n0\xc0'
p651
tp652
bsba(ipomdpy.solvers.alpha_vector
AlphaVector
p653
(dp654
g4
I2
sg5
g6
(g7
(I0
tp655
g9
tp656
Rp657
(I1
(I2
tp658
g16
I00
S'\xa8\xa4N@\x0b\x8f(@Hp\x97\xbelv8\xc0'
p659
tp660
bsba(ipomdpy.solvers.alpha_vector
AlphaVector
p661
(dp662
g4
I2
sg5
g6
(g7
(I0
tp663
g9
tp664
Rp665
(I1
(I2
tp666
g16
I00
S'S\xc6\xbf\x1f\xdf\xe9(@S\xc6\xbf\x1f\xdf\xe98\xc0'
p667
tp668
bsba(ipomdpy.solvers.alpha_vector
AlphaVector
p669
(dp670
g4
I1
sg5
g6
(g7
(I0
tp671
g9
tp672
Rp673
(I1
(I2
tp674
g16
I00
S'a\xa1\xd642\xe68\xc0a\xa1\xd642\xe6(@'
p675
tp676
bsba(ipomdpy.solvers.alpha_vector
AlphaVector
p677
(dp678
g4
I1
sg5
g6
(g7
(I0
tp679
g9
tp680
Rp681
(I1
(I2
tp682
g16
I00
S'P\x1e\x16j\xd1\x988\xc0\xb7\x00L\x97\xd4\xd3(@'
p683
tp684
bsba(ipomdpy.solvers.alpha_vector
AlphaVector
p685
(dp686
g4
I2
sg5
g6
(g7
(I0
tp687
g9
tp688
Rp689
(I1
(I2
tp690
g16
I00
S'\xf2\xf4JYn\xce\x0c@O\xaf\x94\xe5\xe6\x0c0\xc0'
p691
tp692
bsba(ipomdpy.solvers.alpha_vector
AlphaVector
p693
(dp694
g4
I2
sg5
g6
(g7
(I0
tp695
g9
tp696
Rp697
(I1
(I2
tp698
g16
I00
S'\x83\rO\xaft9\x0f@\xa4\xffY\xb4\x15\x160\xc0'
p699
tp700
bsba(ipomdpy.solvers.alpha_vector
AlphaVector
p701
(dp702
g4
I1
sg5
g6
(g7
(I0
tp703
g9
tp704
Rp705
(I1
(I2
tp706
g16
I00
S"\xbbI\x0c\x02\xeb\x907\xc0\xa1'}\x9f\x18\x8a(@"
p707
tp708
bsba(ipomdpy.solvers.alpha_vector
AlphaVector
p709
(dp710
g4
I2
sg5
g6
(g7
(I0
tp711
g9
tp712
Rp713
(I1
(I2
tp714
g16
I00
S']\x19T\xfb\xf5\xcc\x0c@.vo\xd2?\x0b0\xc0'
p715
tp716
bsba(ipomdpy.solvers.alpha_vector
AlphaVector
p717
(dp718
g4
I2
sg5
g6
(g7
(I0
tp719
g9
tp720
Rp721
(I1
(I2
tp722
g16
I00
S'\x14\xaeG\xe1z\x8c"@D\x1a\x89\x91.\xd60\xc0'
p723
tp724
bsba(ipomdpy.solvers.alpha_vector
AlphaVector
p725
(dp726
g4
I2
sg5
g6
(g7
(I0
tp727
g9
tp728
Rp729
(I1
(I2
tp730
g16
I00
S'a\xcd\x01\x02\x07\xb1\x0c@\xd6\x1c p\x10\x0b0\xc0'
p731
tp732
bsba(ipomdpy.solvers.alpha_vector
AlphaVector
p733
(dp734
g4
I2
sg5
g6
(g7
(I0
tp735
g9
tp736
Rp737
(I1
(I2
tp738
g16
I00
S'\xd6V\xec/5\xbd$@\x1c|a\xb2\xb3\xd16\xc0'
p739
tp740
bsba(ipomdpy.solvers.alpha_vector
AlphaVector
p741
(dp742
g4
I2
sg5
g6
(g7
(I0
tp743
g9
tp744
Rp745
(I1
(I2
tp746
g16
I00
S'\xbe\x9f\x1a/=\x13(@A`\xe5\xd0\xfat8\xc0'
p747
tp748
bsba(ipomdpy.solvers.alpha_vector
AlphaVector
p749
(dp750
g4
I2
sg5
g6
(g7
(I0
tp751
g9
tp752
Rp753
(I1
(I2
tp754
g16
I00
S'\xd0\xc6\xbbI\xaf\xdc(@\xbd\xea\x0fz\xd1\xe38\xc0'
p755
tp756
bsba(ipomdpy.solvers.alpha_vector
AlphaVector
p757
(dp758
g4
I1
sg5
g6
(g7
(I0
tp759
g9
tp760
Rp761
(I1
(I2
tp762
g16
I00
S'\x00\x00\x00\x00\x00\x003\xc0\x00\x00\x00\x00\x00\x00#@'
p763
tp764
bsba(ipomdpy.solvers.alpha_vector
AlphaVector
p765
(dp766
g4
I2
sg5
g6
(g7
(I0
tp767
g9
tp768
Rp769
(I1
(I2
tp770
g16
I00
S'\xe8\x97R\x01\xc5\xb5$@7U\xab/\x8e\xcf6\xc0'
p771
tp772
bsbatp773
Rp774
.