c__builtin__
set
p0
((lp1
(ipomdpy.solvers.alpha_vector
AlphaVector
p2
(dp3
S'action'
p4
I2
sS'v'
p5
cnumpy.core.multiarray
_reconstruct
p6
(cnumpy
ndarray
p7
(I0
tp8
S'b'
p9
tp10
Rp11
(I1
(I2
tp12
cnumpy
dtype
p13
(S'f8'
p14
I0
I1
tp15
Rp16
(I3
S'<'
p17
NNNI-1
I-1
I0
tp18
bI00
S'\x00\x00\x00\x00\x00\x00#@\x00\x00\x00\x00\x00\x003\xc0'
p19
tp20
bsba(ipomdpy.solvers.alpha_vector
AlphaVector
p21
(dp22
g4
I0
sg5
g6
(g7
(I0
tp23
g9
tp24
Rp25
(I1
(I2
tp26
g16
I00
S'ffffff\xee\xbfffffff\xee\xbf'
p27
tp28
bsba(ipomdpy.solvers.alpha_vector
AlphaVector
p29
(dp30
g4
I1
sg5
g6
(g7
(I0
tp31
g9
tp32
Rp33
(I1
(I2
tp34
g16
I00
S'\x00\x00\x00\x00\x00\x003\xc0\x00\x00\x00\x00\x00\x00#@'
p35
tp36
bsbatp37
Rp38
.